target datalayout = "e-m:e-p270:32:32-p271:32:32-p272:64:64-i64:64-i128:128-f80:128-n8:16:32:64-S128"
target triple = "x86_64-unknown-linux-gnu"

%"class.sat::literal" = type { i32 }
%"class.sat::clause" = type { i32, i32, i32, %class.approx_set_tpl, i32, [0 x %"class.sat::literal"] }
%class.approx_set_tpl = type { i32 }
%"class.sat::clause_wrapper" = type <{ %union.anon, i32, [4 x i8] }>
%union.anon = type { ptr }

@_ZN3satL12null_literalE = internal global %"class.sat::literal" zeroinitializer, align 4
@.str.2 = private unnamed_addr constant [2 x i8] c"(\00", align 1
@.str.3 = private unnamed_addr constant [2 x i8] c" \00", align 1
@.str.4 = private unnamed_addr constant [2 x i8] c")\00", align 1
@.str.9 = private unnamed_addr constant [3 x i8] c": \00", align 1
@.str.12 = private unnamed_addr constant [5 x i8] c"null\00", align 1
@.str.13 = private unnamed_addr constant [2 x i8] c"-\00", align 1
@.str.14 = private unnamed_addr constant [1 x i8] zeroinitializer, align 1

; Function Attrs: mustprogress nounwind uwtable
define linkonce_odr hidden void @_ZN3sat7literalC2Ev(ptr noundef nonnull align 4 dereferenceable(4) %this) unnamed_addr #4 comdat align 2 {
entry:
  %this.addr = alloca ptr, align 8
  store ptr %this, ptr %this.addr, align 8
  %this1 = load ptr, ptr %this.addr, align 8
  %m_val = getelementptr inbounds %"class.sat::literal", ptr %this1, i32 0, i32 0
  store i32 -2, ptr %m_val, align 4
  ret void
}

; Function Attrs: mustprogress nounwind uwtable
define linkonce_odr hidden noundef i32 @_ZNK3sat7literal3varEv(ptr noundef nonnull align 4 dereferenceable(4) %this) #4 comdat align 2 {
entry:
  %this.addr = alloca ptr, align 8
  store ptr %this, ptr %this.addr, align 8
  %this1 = load ptr, ptr %this.addr, align 8
  %m_val = getelementptr inbounds %"class.sat::literal", ptr %this1, i32 0, i32 0
  %0 = load i32, ptr %m_val, align 4
  %shr = lshr i32 %0, 1
  ret i32 %shr
}

; Function Attrs: mustprogress nounwind uwtable
define linkonce_odr hidden noundef zeroext i1 @_ZNK3sat7literal4signEv(ptr noundef nonnull align 4 dereferenceable(4) %this) #4 comdat align 2 {
entry:
  %this.addr = alloca ptr, align 8
  store ptr %this, ptr %this.addr, align 8
  %this1 = load ptr, ptr %this.addr, align 8
  %m_val = getelementptr inbounds %"class.sat::literal", ptr %this1, i32 0, i32 0
  %0 = load i32, ptr %m_val, align 4
  %conv = zext i32 %0 to i64
  %and = and i64 %conv, 1
  %tobool = icmp ne i64 %and, 0
  ret i1 %tobool
}

; Function Attrs: mustprogress nounwind uwtable
define linkonce_odr hidden noundef zeroext i1 @_ZN3sateqERKNS_7literalES2_(ptr noundef nonnull align 4 dereferenceable(4) %l1, ptr noundef nonnull align 4 dereferenceable(4) %l2) #4 comdat {
entry:
  %l1.addr = alloca ptr, align 8
  %l2.addr = alloca ptr, align 8
  store ptr %l1, ptr %l1.addr, align 8
  store ptr %l2, ptr %l2.addr, align 8
  %0 = load ptr, ptr %l1.addr, align 8
  %m_val = getelementptr inbounds %"class.sat::literal", ptr %0, i32 0, i32 0
  %1 = load i32, ptr %m_val, align 4
  %2 = load ptr, ptr %l2.addr, align 8
  %m_val1 = getelementptr inbounds %"class.sat::literal", ptr %2, i32 0, i32 0
  %3 = load i32, ptr %m_val1, align 4
  %cmp = icmp eq i32 %1, %3
  ret i1 %cmp
}

; Function Attrs: mustprogress nounwind uwtable
define linkonce_odr hidden noundef nonnull align 4 dereferenceable(4) ptr @_ZN3sat6clauseixEj(ptr noundef nonnull align 4 dereferenceable(20) %this, i32 noundef %idx) #4 comdat align 2 {
entry:
  %this.addr = alloca ptr, align 8
  %idx.addr = alloca i32, align 4
  store ptr %this, ptr %this.addr, align 8
  store i32 %idx, ptr %idx.addr, align 4
  %this1 = load ptr, ptr %this.addr, align 8
  %m_lits = getelementptr inbounds %"class.sat::clause", ptr %this1, i32 0, i32 5
  %0 = load i32, ptr %idx.addr, align 4
  %idxprom = zext i32 %0 to i64
  %arrayidx = getelementptr inbounds [0 x %"class.sat::literal"], ptr %m_lits, i64 0, i64 %idxprom
  ret ptr %arrayidx
}

; Function Attrs: mustprogress uwtable
define linkonce_odr hidden i32 @_ZN3sat10to_literalEj(i32 noundef %x) #5 comdat {
entry:
  %retval = alloca %"class.sat::literal", align 4
  %x.addr = alloca i32, align 4
  store i32 %x, ptr %x.addr, align 4
  call void @_ZN3sat7literalC2Ev(ptr noundef nonnull align 4 dereferenceable(4) %retval)
  %0 = load i32, ptr %x.addr, align 4
  %m_val = getelementptr inbounds %"class.sat::literal", ptr %retval, i32 0, i32 0
  store i32 %0, ptr %m_val, align 4
  %coerce.dive = getelementptr inbounds %"class.sat::literal", ptr %retval, i32 0, i32 0
  %1 = load i32, ptr %coerce.dive, align 4
  ret i32 %1
}

; Function Attrs: mustprogress nounwind uwtable
define linkonce_odr hidden noundef i32 @_ZNK3sat7literal7to_uintEv(ptr noundef nonnull align 4 dereferenceable(4) %this) #4 comdat align 2 {
entry:
  %this.addr = alloca ptr, align 8
  store ptr %this, ptr %this.addr, align 8
  %this1 = load ptr, ptr %this.addr, align 8
  %m_val = getelementptr inbounds %"class.sat::literal", ptr %this1, i32 0, i32 0
  %0 = load i32, ptr %m_val, align 4
  ret i32 %0
}

; Function Attrs: mustprogress nounwind uwtable
define linkonce_odr hidden noundef i32 @_ZNK3sat6clause2idEv(ptr noundef nonnull align 4 dereferenceable(20) %this) #4 comdat align 2 {
entry:
  %this.addr = alloca ptr, align 8
  store ptr %this, ptr %this.addr, align 8
  %this1 = load ptr, ptr %this.addr, align 8
  %m_id = getelementptr inbounds %"class.sat::clause", ptr %this1, i32 0, i32 0
  %0 = load i32, ptr %m_id, align 4
  ret i32 %0
}

; Function Attrs: mustprogress nounwind uwtable
define linkonce_odr hidden noundef ptr @_ZNK3sat14clause_wrapper10get_clauseEv(ptr noundef nonnull align 8 dereferenceable(12) %this) #4 comdat align 2 {
entry:
  %this.addr = alloca ptr, align 8
  store ptr %this, ptr %this.addr, align 8
  %this1 = load ptr, ptr %this.addr, align 8
  %0 = getelementptr inbounds %"class.sat::clause_wrapper", ptr %this1, i32 0, i32 0
  %1 = load ptr, ptr %0, align 8
  ret ptr %1
}

; Function Attrs: mustprogress uwtable
define linkonce_odr hidden noundef nonnull align 8 dereferenceable(8) ptr @_ZN3satlsERSoNS_7literalE(ptr noundef nonnull align 8 dereferenceable(8) %out, i32 %l.coerce) #5 comdat {
entry:
  %l = alloca %"class.sat::literal", align 4
  %out.addr = alloca ptr, align 8
  %coerce.dive = getelementptr inbounds %"class.sat::literal", ptr %l, i32 0, i32 0
  store i32 %l.coerce, ptr %coerce.dive, align 4
  store ptr %out, ptr %out.addr, align 8
  %call = call noundef zeroext i1 @_ZN3sateqERKNS_7literalES2_(ptr noundef nonnull align 4 dereferenceable(4) %l, ptr noundef nonnull align 4 dereferenceable(4) @_ZN3satL12null_literalE)
  br i1 %call, label %if.then, label %if.else

if.then:                                          ; preds = %entry
  %0 = load ptr, ptr %out.addr, align 8
  %call1 = call noundef nonnull align 8 dereferenceable(8) ptr @_ZStlsISt11char_traitsIcEERSt13basic_ostreamIcT_ES5_PKc(ptr noundef nonnull align 8 dereferenceable(8) %0, ptr noundef @.str.12)
  br label %if.end

if.else:                                          ; preds = %entry
  %1 = load ptr, ptr %out.addr, align 8
  %call2 = call noundef zeroext i1 @_ZNK3sat7literal4signEv(ptr noundef nonnull align 4 dereferenceable(4) %l)
  %cond = select i1 %call2, ptr @.str.13, ptr @.str.14
  %call3 = call noundef nonnull align 8 dereferenceable(8) ptr @_ZStlsISt11char_traitsIcEERSt13basic_ostreamIcT_ES5_PKc(ptr noundef nonnull align 8 dereferenceable(8) %1, ptr noundef %cond)
  %call4 = call noundef i32 @_ZNK3sat7literal3varEv(ptr noundef nonnull align 4 dereferenceable(4) %l)
  %call5 = call noundef nonnull align 8 dereferenceable(8) ptr @_ZNSolsEj(ptr noundef nonnull align 8 dereferenceable(8) %call3, i32 noundef %call4)
  br label %if.end

if.end:                                           ; preds = %if.else, %if.then
  %2 = load ptr, ptr %out.addr, align 8
  ret ptr %2
}

; Function Attrs: mustprogress uwtable
define linkonce_odr hidden i32 @_ZNK3sat14clause_wrapperixEj(ptr noundef nonnull align 8 dereferenceable(12) %this, i32 noundef %idx) #5 comdat align 2 {
entry:
  %retval = alloca %"class.sat::literal", align 4
  %this.addr = alloca ptr, align 8
  %idx.addr = alloca i32, align 4
  store ptr %this, ptr %this.addr, align 8
  store i32 %idx, ptr %idx.addr, align 4
  %this1 = load ptr, ptr %this.addr, align 8
  %call = call noundef zeroext i1 @_ZNK3sat14clause_wrapper9is_binaryEv(ptr noundef nonnull align 8 dereferenceable(12) %this1)
  br i1 %call, label %if.then, label %if.else

if.then:                                          ; preds = %entry
  %0 = load i32, ptr %idx.addr, align 4
  %cmp = icmp eq i32 %0, 0
  br i1 %cmp, label %cond.true, label %cond.false

cond.true:                                        ; preds = %if.then
  %1 = getelementptr inbounds %"class.sat::clause_wrapper", ptr %this1, i32 0, i32 0
  %2 = load i32, ptr %1, align 8
  %call2 = call i32 @_ZN3sat10to_literalEj(i32 noundef %2)
  %coerce.dive = getelementptr inbounds %"class.sat::literal", ptr %retval, i32 0, i32 0
  store i32 %call2, ptr %coerce.dive, align 4
  br label %cond.end

cond.false:                                       ; preds = %if.then
  %m_l2_idx = getelementptr inbounds %"class.sat::clause_wrapper", ptr %this1, i32 0, i32 1
  %3 = load i32, ptr %m_l2_idx, align 8
  %call3 = call i32 @_ZN3sat10to_literalEj(i32 noundef %3)
  %coerce.dive4 = getelementptr inbounds %"class.sat::literal", ptr %retval, i32 0, i32 0
  store i32 %call3, ptr %coerce.dive4, align 4
  br label %cond.end

cond.end:                                         ; preds = %cond.false, %cond.true
  br label %return

if.else:                                          ; preds = %entry
  %4 = getelementptr inbounds %"class.sat::clause_wrapper", ptr %this1, i32 0, i32 0
  %5 = load ptr, ptr %4, align 8
  %6 = load i32, ptr %idx.addr, align 4
  %call5 = call noundef nonnull align 4 dereferenceable(4) ptr @_ZN3sat6clauseixEj(ptr noundef nonnull align 4 dereferenceable(20) %5, i32 noundef %6)
  call void @llvm.memcpy.p0.p0.i64(ptr align 4 %retval, ptr align 4 %call5, i64 4, i1 false)
  br label %return

return:                                           ; preds = %if.else, %cond.end
  %coerce.dive6 = getelementptr inbounds %"class.sat::literal", ptr %retval, i32 0, i32 0
  %7 = load i32, ptr %coerce.dive6, align 4
  ret i32 %7
}

; Function Attrs: mustprogress uwtable
define linkonce_odr hidden noundef zeroext i1 @_ZNK3sat14clause_wrapper9is_binaryEv(ptr noundef nonnull align 8 dereferenceable(12) %this) #5 comdat align 2 {
entry:
  %this.addr = alloca ptr, align 8
  store ptr %this, ptr %this.addr, align 8
  %this1 = load ptr, ptr %this.addr, align 8
  %m_l2_idx = getelementptr inbounds %"class.sat::clause_wrapper", ptr %this1, i32 0, i32 1
  %0 = load i32, ptr %m_l2_idx, align 8
  %call = call noundef i32 @_ZNK3sat7literal7to_uintEv(ptr noundef nonnull align 4 dereferenceable(4) @_ZN3satL12null_literalE)
  %cmp = icmp ne i32 %0, %call
  ret i1 %cmp
}

; Function Attrs: mustprogress uwtable
define hidden noundef nonnull align 8 dereferenceable(8) ptr @_ZN3satlsERSoRKNS_14clause_wrapperE(ptr noundef nonnull align 8 dereferenceable(8) %out, ptr noundef nonnull align 8 dereferenceable(12) %c) #5 {
entry:
  %out.addr = alloca ptr, align 8
  %c.addr = alloca ptr, align 8
  %agg.tmp = alloca %"class.sat::literal", align 4
  %agg.tmp6 = alloca %"class.sat::literal", align 4
  store ptr %out, ptr %out.addr, align 8
  store ptr %c, ptr %c.addr, align 8
  %0 = load ptr, ptr %c.addr, align 8
  %call = call noundef zeroext i1 @_ZNK3sat14clause_wrapper9is_binaryEv(ptr noundef nonnull align 8 dereferenceable(12) %0)
  br i1 %call, label %if.then, label %if.else

if.then:                                          ; preds = %entry
  %1 = load ptr, ptr %out.addr, align 8
  %call1 = call noundef nonnull align 8 dereferenceable(8) ptr @_ZStlsISt11char_traitsIcEERSt13basic_ostreamIcT_ES5_PKc(ptr noundef nonnull align 8 dereferenceable(8) %1, ptr noundef @.str.2)
  %2 = load ptr, ptr %c.addr, align 8
  %call2 = call i32 @_ZNK3sat14clause_wrapperixEj(ptr noundef nonnull align 8 dereferenceable(12) %2, i32 noundef 0)
  %coerce.dive = getelementptr inbounds %"class.sat::literal", ptr %agg.tmp, i32 0, i32 0
  store i32 %call2, ptr %coerce.dive, align 4
  %coerce.dive3 = getelementptr inbounds %"class.sat::literal", ptr %agg.tmp, i32 0, i32 0
  %3 = load i32, ptr %coerce.dive3, align 4
  %call4 = call noundef nonnull align 8 dereferenceable(8) ptr @_ZN3satlsERSoNS_7literalE(ptr noundef nonnull align 8 dereferenceable(8) %call1, i32 %3)
  %call5 = call noundef nonnull align 8 dereferenceable(8) ptr @_ZStlsISt11char_traitsIcEERSt13basic_ostreamIcT_ES5_PKc(ptr noundef nonnull align 8 dereferenceable(8) %call4, ptr noundef @.str.3)
  %4 = load ptr, ptr %c.addr, align 8
  %call7 = call i32 @_ZNK3sat14clause_wrapperixEj(ptr noundef nonnull align 8 dereferenceable(12) %4, i32 noundef 1)
  %coerce.dive8 = getelementptr inbounds %"class.sat::literal", ptr %agg.tmp6, i32 0, i32 0
  store i32 %call7, ptr %coerce.dive8, align 4
  %coerce.dive9 = getelementptr inbounds %"class.sat::literal", ptr %agg.tmp6, i32 0, i32 0
  %5 = load i32, ptr %coerce.dive9, align 4
  %call10 = call noundef nonnull align 8 dereferenceable(8) ptr @_ZN3satlsERSoNS_7literalE(ptr noundef nonnull align 8 dereferenceable(8) %call5, i32 %5)
  %call11 = call noundef nonnull align 8 dereferenceable(8) ptr @_ZStlsISt11char_traitsIcEERSt13basic_ostreamIcT_ES5_PKc(ptr noundef nonnull align 8 dereferenceable(8) %call10, ptr noundef @.str.4)
  br label %if.end

if.else:                                          ; preds = %entry
  %6 = load ptr, ptr %out.addr, align 8
  %7 = load ptr, ptr %c.addr, align 8
  %call12 = call noundef ptr @_ZNK3sat14clause_wrapper10get_clauseEv(ptr noundef nonnull align 8 dereferenceable(12) %7)
  %call13 = call noundef i32 @_ZNK3sat6clause2idEv(ptr noundef nonnull align 4 dereferenceable(20) %call12)
  %call14 = call noundef nonnull align 8 dereferenceable(8) ptr @_ZNSolsEj(ptr noundef nonnull align 8 dereferenceable(8) %6, i32 noundef %call13)
  %call15 = call noundef nonnull align 8 dereferenceable(8) ptr @_ZStlsISt11char_traitsIcEERSt13basic_ostreamIcT_ES5_PKc(ptr noundef nonnull align 8 dereferenceable(8) %call14, ptr noundef @.str.9)
  %8 = load ptr, ptr %c.addr, align 8
  %call16 = call noundef ptr @_ZNK3sat14clause_wrapper10get_clauseEv(ptr noundef nonnull align 8 dereferenceable(12) %8)
  %call17 = call noundef nonnull align 8 dereferenceable(8) ptr @_ZN3satlsERSoRKNS_6clauseE(ptr noundef nonnull align 8 dereferenceable(8) %call15, ptr noundef nonnull align 4 dereferenceable(20) %call16)
  br label %if.end

if.end:                                           ; preds = %if.else, %if.then
  %9 = load ptr, ptr %out.addr, align 8
  ret ptr %9
}