; Function Attrs: mustprogress uwtable
define hidden noundef nonnull align 8 dereferenceable(8) ptr @_ZN3satlsERSoRKNS_14clause_wrapperE(ptr noundef nonnull returned align 8 dereferenceable(8) %out, ptr nocapture noundef nonnull readonly align 8 dereferenceable(12) %c) local_unnamed_addr #8 {
entry:
  %m_l2_idx.i = getelementptr inbounds i8, ptr %c, i64 8
  %0 = load i32, ptr %m_l2_idx.i, align 8
  %.b28 = load i1, ptr @_ZN3satL12null_literalE.0, align 4
  %1 = select i1 %.b28, i32 -2, i32 0
  %cmp.i.not = icmp eq i32 %0, %1
  br i1 %cmp.i.not, label %if.else, label %if.then

if.then:                                          ; preds = %entry
  %call1 = tail call noundef nonnull align 8 dereferenceable(8) ptr @_ZStlsISt11char_traitsIcEERSt13basic_ostreamIcT_ES5_PKc(ptr noundef nonnull align 8 dereferenceable(8) %out, ptr noundef nonnull @.str.2)
  %2 = load i32, ptr %m_l2_idx.i, align 8
  %.b27 = load i1, ptr @_ZN3satL12null_literalE.0, align 4
  %3 = select i1 %.b27, i32 -2, i32 0
  %cmp.i.not.i = icmp eq i32 %2, %3
  %4 = load ptr, ptr %c, align 8
  %m_lits.i.i = getelementptr inbounds i8, ptr %4, i64 20
  %retval.sroa.0.0.i.in = select i1 %cmp.i.not.i, ptr %m_lits.i.i, ptr %c
  %retval.sroa.0.0.i = load i32, ptr %retval.sroa.0.0.i.in, align 4
  %cmp.i.i = icmp eq i32 %3, %retval.sroa.0.0.i
  br i1 %cmp.i.i, label %if.then.i8, label %if.else.i7

if.then.i8:                                       ; preds = %if.then
  %call1.i = tail call noundef nonnull align 8 dereferenceable(8) ptr @_ZStlsISt11char_traitsIcEERSt13basic_ostreamIcT_ES5_PKc(ptr noundef nonnull align 8 dereferenceable(8) %call1, ptr noundef nonnull @.str.12)
  br label %_ZN3satlsERSoNS_7literalE.exit

if.else.i7:                                       ; preds = %if.then
  %5 = and i32 %retval.sroa.0.0.i, 1
  %tobool.i.not.i = icmp eq i32 %5, 0
  %cond.i = select i1 %tobool.i.not.i, ptr @.str.14, ptr @.str.13
  %call3.i = tail call noundef nonnull align 8 dereferenceable(8) ptr @_ZStlsISt11char_traitsIcEERSt13basic_ostreamIcT_ES5_PKc(ptr noundef nonnull align 8 dereferenceable(8) %call1, ptr noundef nonnull %cond.i)
  %shr.i.i = lshr i32 %retval.sroa.0.0.i, 1
  %call5.i = tail call noundef nonnull align 8 dereferenceable(8) ptr @_ZNSolsEj(ptr noundef nonnull align 8 dereferenceable(8) %call3.i, i32 noundef %shr.i.i)
  br label %_ZN3satlsERSoNS_7literalE.exit

_ZN3satlsERSoNS_7literalE.exit:                   ; preds = %if.then.i8, %if.else.i7
  %call5 = tail call noundef nonnull align 8 dereferenceable(8) ptr @_ZStlsISt11char_traitsIcEERSt13basic_ostreamIcT_ES5_PKc(ptr noundef nonnull align 8 dereferenceable(8) %call1, ptr noundef nonnull @.str.3)
  %6 = load i32, ptr %m_l2_idx.i, align 8
  %.b = load i1, ptr @_ZN3satL12null_literalE.0, align 4
  %7 = select i1 %.b, i32 -2, i32 0
  %cmp.i.not.i10 = icmp eq i32 %6, %7
  br i1 %cmp.i.not.i10, label %if.else.i13, label %_ZNK3sat14clause_wrapperixEj.exit16

if.else.i13:                                      ; preds = %_ZN3satlsERSoNS_7literalE.exit
  %8 = load ptr, ptr %c, align 8
  %arrayidx.i.i = getelementptr inbounds i8, ptr %8, i64 24
  %retval.sroa.0.0.copyload.i15 = load i32, ptr %arrayidx.i.i, align 4
  br label %_ZNK3sat14clause_wrapperixEj.exit16

_ZNK3sat14clause_wrapperixEj.exit16:              ; preds = %_ZN3satlsERSoNS_7literalE.exit, %if.else.i13
  %retval.sroa.0.0.i12 = phi i32 [ %retval.sroa.0.0.copyload.i15, %if.else.i13 ], [ %6, %_ZN3satlsERSoNS_7literalE.exit ]
  %cmp.i.i17 = icmp eq i32 %7, %retval.sroa.0.0.i12
  br i1 %cmp.i.i17, label %if.then.i24, label %if.else.i18

if.then.i24:                                      ; preds = %_ZNK3sat14clause_wrapperixEj.exit16
  %call1.i25 = tail call noundef nonnull align 8 dereferenceable(8) ptr @_ZStlsISt11char_traitsIcEERSt13basic_ostreamIcT_ES5_PKc(ptr noundef nonnull align 8 dereferenceable(8) %call5, ptr noundef nonnull @.str.12)
  br label %_ZN3satlsERSoNS_7literalE.exit26

if.else.i18:                                      ; preds = %_ZNK3sat14clause_wrapperixEj.exit16
  %9 = and i32 %retval.sroa.0.0.i12, 1
  %tobool.i.not.i19 = icmp eq i32 %9, 0
  %cond.i20 = select i1 %tobool.i.not.i19, ptr @.str.14, ptr @.str.13
  %call3.i21 = tail call noundef nonnull align 8 dereferenceable(8) ptr @_ZStlsISt11char_traitsIcEERSt13basic_ostreamIcT_ES5_PKc(ptr noundef nonnull align 8 dereferenceable(8) %call5, ptr noundef nonnull %cond.i20)
  %shr.i.i22 = lshr i32 %retval.sroa.0.0.i12, 1
  %call5.i23 = tail call noundef nonnull align 8 dereferenceable(8) ptr @_ZNSolsEj(ptr noundef nonnull align 8 dereferenceable(8) %call3.i21, i32 noundef %shr.i.i22)
  br label %_ZN3satlsERSoNS_7literalE.exit26

_ZN3satlsERSoNS_7literalE.exit26:                 ; preds = %if.then.i24, %if.else.i18
  %call11 = tail call noundef nonnull align 8 dereferenceable(8) ptr @_ZStlsISt11char_traitsIcEERSt13basic_ostreamIcT_ES5_PKc(ptr noundef nonnull align 8 dereferenceable(8) %call5, ptr noundef nonnull @.str.4)
  br label %if.end

if.else:                                          ; preds = %entry
  %10 = load ptr, ptr %c, align 8
  %11 = load i32, ptr %10, align 4
  %call14 = tail call noundef nonnull align 8 dereferenceable(8) ptr @_ZNSolsEj(ptr noundef nonnull align 8 dereferenceable(8) %out, i32 noundef %11)
  %call15 = tail call noundef nonnull align 8 dereferenceable(8) ptr @_ZStlsISt11char_traitsIcEERSt13basic_ostreamIcT_ES5_PKc(ptr noundef nonnull align 8 dereferenceable(8) %call14, ptr noundef nonnull @.str.9)
  %12 = load ptr, ptr %c, align 8
  %call17 = tail call noundef nonnull align 8 dereferenceable(8) ptr @_ZN3satlsERSoRKNS_6clauseE(ptr noundef nonnull align 8 dereferenceable(8) %call15, ptr noundef nonnull align 4 dereferenceable(20) %12)
  br label %if.end

if.end:                                           ; preds = %if.else, %_ZN3satlsERSoNS_7literalE.exit26
  ret ptr %out
}